target datalayout = "e-m:e-p270:32:32-p271:32:32-p272:64:64-i64:64-i128:128-f80:128-n8:16:32:64-S128"
target triple = "x86_64-pc-linux-gnu"

%class.ConstMethod = type <{ i64, ptr, ptr, i32, %class.ConstMethodFlags, i8, i8, i16, i16, i16, i16, i16, i16, i16, i16, i16, [4 x i8] }>
%class.ConstMethodFlags = type { i32 }

; Function Attrs: mustprogress nounwind uwtable
define linkonce_odr hidden noundef zeroext i1 @_ZNK16ConstMethodFlags23has_default_annotationsEv(ptr noundef nonnull align 4 dereferenceable(4) %0) #1 comdat align 2 {
  %2 = alloca ptr, align 8
  store ptr %0, ptr %2, align 8
  %3 = load ptr, ptr %2, align 8
  %4 = getelementptr inbounds %class.ConstMethodFlags, ptr %3, i32 0, i32 0
  %5 = load i32, ptr %4, align 4
  %6 = and i32 %5, 1024
  %7 = icmp ne i32 %6, 0
  ret i1 %7
}

; Function Attrs: mustprogress nounwind uwtable
define linkonce_odr hidden noundef zeroext i1 @_ZNK16ConstMethodFlags20has_type_annotationsEv(ptr noundef nonnull align 4 dereferenceable(4) %0) #1 comdat align 2 {
  %2 = alloca ptr, align 8
  store ptr %0, ptr %2, align 8
  %3 = load ptr, ptr %2, align 8
  %4 = getelementptr inbounds %class.ConstMethodFlags, ptr %3, i32 0, i32 0
  %5 = load i32, ptr %4, align 4
  %6 = and i32 %5, 512
  %7 = icmp ne i32 %6, 0
  ret i1 %7
}

; Function Attrs: mustprogress nounwind uwtable
define linkonce_odr hidden noundef zeroext i1 @_ZNK16ConstMethodFlags25has_parameter_annotationsEv(ptr noundef nonnull align 4 dereferenceable(4) %0) #1 comdat align 2 {
  %2 = alloca ptr, align 8
  store ptr %0, ptr %2, align 8
  %3 = load ptr, ptr %2, align 8
  %4 = getelementptr inbounds %class.ConstMethodFlags, ptr %3, i32 0, i32 0
  %5 = load i32, ptr %4, align 4
  %6 = and i32 %5, 256
  %7 = icmp ne i32 %6, 0
  ret i1 %7
}

; Function Attrs: mustprogress nounwind uwtable
define linkonce_odr hidden noundef zeroext i1 @_ZNK16ConstMethodFlags22has_method_annotationsEv(ptr noundef nonnull align 4 dereferenceable(4) %0) #1 comdat align 2 {
  %2 = alloca ptr, align 8
  store ptr %0, ptr %2, align 8
  %3 = load ptr, ptr %2, align 8
  %4 = getelementptr inbounds %class.ConstMethodFlags, ptr %3, i32 0, i32 0
  %5 = load i32, ptr %4, align 4
  %6 = and i32 %5, 128
  %7 = icmp ne i32 %6, 0
  ret i1 %7
}

; Function Attrs: mustprogress nounwind uwtable
define linkonce_odr hidden noundef ptr @_ZNK11ConstMethod15constMethod_endEv(ptr noundef nonnull align 8 dereferenceable(52) %0) #1 comdat align 2 {
  %2 = alloca ptr, align 8
  store ptr %0, ptr %2, align 8
  %3 = load ptr, ptr %2, align 8
  %4 = getelementptr inbounds %class.ConstMethod, ptr %3, i32 0, i32 3
  %5 = load i32, ptr %4, align 8
  %6 = sext i32 %5 to i64
  %7 = getelementptr inbounds i64, ptr %3, i64 %6
  ret ptr %7
}

; Function Attrs: mustprogress nounwind uwtable
define linkonce_odr hidden noundef zeroext i1 @_ZNK11ConstMethod23has_default_annotationsEv(ptr noundef nonnull align 8 dereferenceable(52) %0) #1 comdat align 2 {
  %2 = alloca ptr, align 8
  store ptr %0, ptr %2, align 8
  %3 = load ptr, ptr %2, align 8
  %4 = getelementptr inbounds %class.ConstMethod, ptr %3, i32 0, i32 4
  %5 = call noundef zeroext i1 @_ZNK16ConstMethodFlags23has_default_annotationsEv(ptr noundef nonnull align 4 dereferenceable(4) %4)
  ret i1 %5
}

; Function Attrs: mustprogress nounwind uwtable
define linkonce_odr hidden noundef zeroext i1 @_ZNK11ConstMethod20has_type_annotationsEv(ptr noundef nonnull align 8 dereferenceable(52) %0) #1 comdat align 2 {
  %2 = alloca ptr, align 8
  store ptr %0, ptr %2, align 8
  %3 = load ptr, ptr %2, align 8
  %4 = getelementptr inbounds %class.ConstMethod, ptr %3, i32 0, i32 4
  %5 = call noundef zeroext i1 @_ZNK16ConstMethodFlags20has_type_annotationsEv(ptr noundef nonnull align 4 dereferenceable(4) %4)
  ret i1 %5
}

; Function Attrs: mustprogress nounwind uwtable
define linkonce_odr hidden noundef zeroext i1 @_ZNK11ConstMethod25has_parameter_annotationsEv(ptr noundef nonnull align 8 dereferenceable(52) %0) #1 comdat align 2 {
  %2 = alloca ptr, align 8
  store ptr %0, ptr %2, align 8
  %3 = load ptr, ptr %2, align 8
  %4 = getelementptr inbounds %class.ConstMethod, ptr %3, i32 0, i32 4
  %5 = call noundef zeroext i1 @_ZNK16ConstMethodFlags25has_parameter_annotationsEv(ptr noundef nonnull align 4 dereferenceable(4) %4)
  ret i1 %5
}

; Function Attrs: mustprogress nounwind uwtable
define linkonce_odr hidden noundef zeroext i1 @_ZNK11ConstMethod22has_method_annotationsEv(ptr noundef nonnull align 8 dereferenceable(52) %0) #1 comdat align 2 {
  %2 = alloca ptr, align 8
  store ptr %0, ptr %2, align 8
  %3 = load ptr, ptr %2, align 8
  %4 = getelementptr inbounds %class.ConstMethod, ptr %3, i32 0, i32 4
  %5 = call noundef zeroext i1 @_ZNK16ConstMethodFlags22has_method_annotationsEv(ptr noundef nonnull align 4 dereferenceable(4) %4)
  ret i1 %5
}

; Function Attrs: mustprogress nounwind uwtable
define linkonce_odr hidden noundef zeroext i1 @_ZNK16ConstMethodFlags21has_generic_signatureEv(ptr noundef nonnull align 4 dereferenceable(4) %0) #1 comdat align 2 {
  %2 = alloca ptr, align 8
  store ptr %0, ptr %2, align 8
  %3 = load ptr, ptr %2, align 8
  %4 = getelementptr inbounds %class.ConstMethodFlags, ptr %3, i32 0, i32 0
  %5 = load i32, ptr %4, align 4
  %6 = and i32 %5, 16
  %7 = icmp ne i32 %6, 0
  ret i1 %7
}

; Function Attrs: mustprogress nounwind uwtable
define hidden noundef ptr @_ZNK11ConstMethod29method_parameters_length_addrEv(ptr noundef nonnull align 8 dereferenceable(52) %0) #1 align 2 {
  %2 = alloca ptr, align 8
  store ptr %0, ptr %2, align 8
  %3 = load ptr, ptr %2, align 8
  %4 = call noundef zeroext i1 @_ZNK11ConstMethod21has_generic_signatureEv(ptr noundef nonnull align 8 dereferenceable(52) %3)
  br i1 %4, label %5, label %8

5:                                                ; preds = %1
  %6 = call noundef ptr @_ZNK11ConstMethod15last_u2_elementEv(ptr noundef nonnull align 8 dereferenceable(52) %3)
  %7 = getelementptr inbounds i16, ptr %6, i64 -1
  br label %10

8:                                                ; preds = %1
  %9 = call noundef ptr @_ZNK11ConstMethod15last_u2_elementEv(ptr noundef nonnull align 8 dereferenceable(52) %3)
  br label %10

10:                                               ; preds = %8, %5
  %11 = phi ptr [ %7, %5 ], [ %9, %8 ]
  ret ptr %11
}

; Function Attrs: mustprogress nounwind uwtable
define linkonce_odr hidden noundef zeroext i1 @_ZNK16ConstMethodFlags21has_method_parametersEv(ptr noundef nonnull align 4 dereferenceable(4) %0) #1 comdat align 2 {
  %2 = alloca ptr, align 8
  store ptr %0, ptr %2, align 8
  %3 = load ptr, ptr %2, align 8
  %4 = getelementptr inbounds %class.ConstMethodFlags, ptr %3, i32 0, i32 0
  %5 = load i32, ptr %4, align 4
  %6 = and i32 %5, 32
  %7 = icmp ne i32 %6, 0
  ret i1 %7
}

; Function Attrs: mustprogress nounwind uwtable
define hidden noundef ptr @_ZNK11ConstMethod15last_u2_elementEv(ptr noundef nonnull align 8 dereferenceable(52) %0) #1 align 2 {
  %2 = alloca ptr, align 8
  %3 = alloca i32, align 4
  store ptr %0, ptr %2, align 8
  %4 = load ptr, ptr %2, align 8
  store i32 0, ptr %3, align 4
  %5 = call noundef zeroext i1 @_ZNK11ConstMethod22has_method_annotationsEv(ptr noundef nonnull align 8 dereferenceable(52) %4)
  br i1 %5, label %6, label %9

6:                                                ; preds = %1
  %7 = load i32, ptr %3, align 4
  %8 = add nsw i32 %7, 1
  store i32 %8, ptr %3, align 4
  br label %9

9:                                                ; preds = %6, %1
  %10 = call noundef zeroext i1 @_ZNK11ConstMethod25has_parameter_annotationsEv(ptr noundef nonnull align 8 dereferenceable(52) %4)
  br i1 %10, label %11, label %14

11:                                               ; preds = %9
  %12 = load i32, ptr %3, align 4
  %13 = add nsw i32 %12, 1
  store i32 %13, ptr %3, align 4
  br label %14

14:                                               ; preds = %11, %9
  %15 = call noundef zeroext i1 @_ZNK11ConstMethod20has_type_annotationsEv(ptr noundef nonnull align 8 dereferenceable(52) %4)
  br i1 %15, label %16, label %19

16:                                               ; preds = %14
  %17 = load i32, ptr %3, align 4
  %18 = add nsw i32 %17, 1
  store i32 %18, ptr %3, align 4
  br label %19

19:                                               ; preds = %16, %14
  %20 = call noundef zeroext i1 @_ZNK11ConstMethod23has_default_annotationsEv(ptr noundef nonnull align 8 dereferenceable(52) %4)
  br i1 %20, label %21, label %24

21:                                               ; preds = %19
  %22 = load i32, ptr %3, align 4
  %23 = add nsw i32 %22, 1
  store i32 %23, ptr %3, align 4
  br label %24

24:                                               ; preds = %21, %19
  %25 = call noundef ptr @_ZNK11ConstMethod15constMethod_endEv(ptr noundef nonnull align 8 dereferenceable(52) %4)
  %26 = load i32, ptr %3, align 4
  %27 = sext i32 %26 to i64
  %28 = sub i64 0, %27
  %29 = getelementptr inbounds ptr, ptr %25, i64 %28
  %30 = getelementptr inbounds i16, ptr %29, i64 -1
  ret ptr %30
}

; Function Attrs: mustprogress nounwind uwtable
define linkonce_odr hidden noundef zeroext i1 @_ZNK11ConstMethod21has_generic_signatureEv(ptr noundef nonnull align 8 dereferenceable(52) %0) #1 comdat align 2 {
  %2 = alloca ptr, align 8
  store ptr %0, ptr %2, align 8
  %3 = load ptr, ptr %2, align 8
  %4 = getelementptr inbounds %class.ConstMethod, ptr %3, i32 0, i32 4
  %5 = call noundef zeroext i1 @_ZNK16ConstMethodFlags21has_generic_signatureEv(ptr noundef nonnull align 4 dereferenceable(4) %4)
  ret i1 %5
}

; Function Attrs: mustprogress nounwind uwtable
define hidden noundef ptr @_ZNK11ConstMethod23method_parameters_startEv(ptr noundef nonnull align 8 dereferenceable(52) %0) #1 align 2 {
  %2 = alloca ptr, align 8
  %3 = alloca ptr, align 8
  %4 = alloca i16, align 2
  store ptr %0, ptr %2, align 8
  %5 = load ptr, ptr %2, align 8
  %6 = call noundef ptr @_ZNK11ConstMethod29method_parameters_length_addrEv(ptr noundef nonnull align 8 dereferenceable(52) %5)
  store ptr %6, ptr %3, align 8
  %7 = load ptr, ptr %3, align 8
  %8 = load i16, ptr %7, align 2
  store i16 %8, ptr %4, align 2
  %9 = load i16, ptr %4, align 2
  %10 = zext i16 %9 to i64
  %11 = mul i64 %10, 4
  %12 = udiv i64 %11, 2
  %13 = load ptr, ptr %3, align 8
  %14 = sub i64 0, %12
  %15 = getelementptr inbounds i16, ptr %13, i64 %14
  store ptr %15, ptr %3, align 8
  %16 = load ptr, ptr %3, align 8
  ret ptr %16
}

; Function Attrs: mustprogress nounwind uwtable
define linkonce_odr hidden noundef zeroext i1 @_ZNK11ConstMethod21has_method_parametersEv(ptr noundef nonnull align 8 dereferenceable(52) %0) #1 comdat align 2 {
  %2 = alloca ptr, align 8
  store ptr %0, ptr %2, align 8
  %3 = load ptr, ptr %2, align 8
  %4 = getelementptr inbounds %class.ConstMethod, ptr %3, i32 0, i32 4
  %5 = call noundef zeroext i1 @_ZNK16ConstMethodFlags21has_method_parametersEv(ptr noundef nonnull align 4 dereferenceable(4) %4)
  ret i1 %5
}

; Function Attrs: mustprogress nounwind uwtable
define hidden noundef ptr @_ZNK11ConstMethod30checked_exceptions_length_addrEv(ptr noundef nonnull align 8 dereferenceable(52) %0) #1 align 2 {
  %2 = alloca ptr, align 8
  %3 = alloca ptr, align 8
  store ptr %0, ptr %3, align 8
  %4 = load ptr, ptr %3, align 8
  %5 = call noundef zeroext i1 @_ZNK11ConstMethod21has_method_parametersEv(ptr noundef nonnull align 8 dereferenceable(52) %4)
  br i1 %5, label %6, label %9

6:                                                ; preds = %1
  %7 = call noundef ptr @_ZNK11ConstMethod23method_parameters_startEv(ptr noundef nonnull align 8 dereferenceable(52) %4)
  %8 = getelementptr inbounds i16, ptr %7, i64 -1
  store ptr %8, ptr %2, align 8
  br label %18

9:                                                ; preds = %1
  %10 = call noundef zeroext i1 @_ZNK11ConstMethod21has_generic_signatureEv(ptr noundef nonnull align 8 dereferenceable(52) %4)
  br i1 %10, label %11, label %14

11:                                               ; preds = %9
  %12 = call noundef ptr @_ZNK11ConstMethod15last_u2_elementEv(ptr noundef nonnull align 8 dereferenceable(52) %4)
  %13 = getelementptr inbounds i16, ptr %12, i64 -1
  br label %16

14:                                               ; preds = %9
  %15 = call noundef ptr @_ZNK11ConstMethod15last_u2_elementEv(ptr noundef nonnull align 8 dereferenceable(52) %4)
  br label %16

16:                                               ; preds = %14, %11
  %17 = phi ptr [ %13, %11 ], [ %15, %14 ]
  store ptr %17, ptr %2, align 8
  br label %18

18:                                               ; preds = %16, %6
  %19 = load ptr, ptr %2, align 8
  ret ptr %19
}

; Function Attrs: mustprogress nounwind uwtable
define hidden noundef ptr @_ZNK11ConstMethod24checked_exceptions_startEv(ptr noundef nonnull align 8 dereferenceable(52) %0) #1 align 2 {
  %2 = alloca ptr, align 8
  %3 = alloca ptr, align 8
  %4 = alloca i16, align 2
  store ptr %0, ptr %2, align 8
  %5 = load ptr, ptr %2, align 8
  %6 = call noundef ptr @_ZNK11ConstMethod30checked_exceptions_length_addrEv(ptr noundef nonnull align 8 dereferenceable(52) %5)
  store ptr %6, ptr %3, align 8
  %7 = load ptr, ptr %3, align 8
  %8 = load i16, ptr %7, align 2
  store i16 %8, ptr %4, align 2
  %9 = load i16, ptr %4, align 2
  %10 = zext i16 %9 to i64
  %11 = mul i64 %10, 2
  %12 = udiv i64 %11, 2
  %13 = load ptr, ptr %3, align 8
  %14 = sub i64 0, %12
  %15 = getelementptr inbounds i16, ptr %13, i64 %14
  store ptr %15, ptr %3, align 8
  %16 = load ptr, ptr %3, align 8
  ret ptr %16
}