; Function Attrs: mustprogress nofree norecurse nosync nounwind willreturn memory(read, inaccessiblemem: none) uwtable
define hidden noundef nonnull ptr @_ZNK11ConstMethod24checked_exceptions_startEv(ptr noundef nonnull readonly align 8 dereferenceable(52) %0) local_unnamed_addr #7 align 2 {
  %2 = getelementptr inbounds i8, ptr %0, i64 28
  %3 = load i32, ptr %2, align 4
  %4 = and i32 %3, 32
  %.not.i = icmp eq i32 %4, 0
  %5 = and i32 %3, 16
  %.not6.i = icmp eq i32 %5, 0
  %6 = lshr i32 %3, 7
  %.lobit.i2.i = and i32 %6, 1
  %7 = lshr i32 %3, 8
  %8 = and i32 %7, 1
  %.1.i3.i = add nuw nsw i32 %.lobit.i2.i, %8
  %9 = lshr i32 %3, 9
  %10 = and i32 %9, 1
  %.2.i4.i = add nuw nsw i32 %.1.i3.i, %10
  %11 = lshr i32 %3, 10
  %12 = and i32 %11, 1
  %.3.i5.i = add nuw nsw i32 %.2.i4.i, %12
  %13 = getelementptr inbounds i8, ptr %0, i64 24
  %14 = load i32, ptr %13, align 8
  %15 = sext i32 %14 to i64
  %16 = getelementptr inbounds i64, ptr %0, i64 %15
  %17 = zext nneg i32 %.3.i5.i to i64
  %18 = sub nsw i64 0, %17
  %19 = getelementptr inbounds ptr, ptr %16, i64 %18
  br i1 %.not.i, label %26, label %20

20:                                               ; preds = %1
  %..i.i.i = select i1 %.not6.i, i64 -2, i64 -4
  %21 = getelementptr inbounds i8, ptr %19, i64 %..i.i.i
  %22 = load i16, ptr %21, align 2
  %23 = zext i16 %22 to i64
  %.idx.i.i = mul nsw i64 %23, -4
  %24 = getelementptr inbounds i8, ptr %21, i64 %.idx.i.i
  %25 = getelementptr inbounds i8, ptr %24, i64 -2
  br label %_ZNK11ConstMethod30checked_exceptions_length_addrEv.exit

26:                                               ; preds = %1
  br i1 %.not6.i, label %29, label %27

27:                                               ; preds = %26
  %28 = getelementptr inbounds i8, ptr %19, i64 -4
  br label %_ZNK11ConstMethod30checked_exceptions_length_addrEv.exit

29:                                               ; preds = %26
  %30 = getelementptr inbounds i8, ptr %19, i64 -2
  br label %_ZNK11ConstMethod30checked_exceptions_length_addrEv.exit

_ZNK11ConstMethod30checked_exceptions_length_addrEv.exit: ; preds = %20, %27, %29
  %.0.i = phi ptr [ %25, %20 ], [ %28, %27 ], [ %30, %29 ]
  %31 = load i16, ptr %.0.i, align 2
  %32 = zext i16 %31 to i64
  %33 = sub nsw i64 0, %32
  %34 = getelementptr inbounds i16, ptr %.0.i, i64 %33
  ret ptr %34
}